target datalayout = "e-m:e-p270:32:32-p271:32:32-p272:64:64-i64:64-i128:128-f80:128-n8:16:32:64-S128"
target triple = "x86_64-pc-linux-gnu"

%struct.cbuf = type { %union.pthread_mutex_t, i32, i32, i32, i32, i32, i32, i32, i32, i32, i32, ptr }
%union.pthread_mutex_t = type { %struct.__pthread_mutex_s }
%struct.__pthread_mutex_s = type { i32, i32, i32, i32, i32, i16, i16, %struct.__pthread_internal_list }
%struct.__pthread_internal_list = type { ptr, ptr }

@.str.2 = private unnamed_addr constant [29 x i8] c"%s: pthread_mutex_lock(): %m\00", align 1
@.str.3 = private unnamed_addr constant [31 x i8] c"%s: pthread_mutex_unlock(): %m\00", align 1
@__func__.cbuf_drop = private unnamed_addr constant [10 x i8] c"cbuf_drop\00", align 1

; Function Attrs: nounwind uwtable
define internal i32 @cbuf_shrink(ptr noundef %0) #0 {
  %2 = alloca i32, align 4
  %3 = alloca ptr, align 8
  store ptr %0, ptr %3, align 8
  %4 = load ptr, ptr %3, align 8
  %5 = getelementptr inbounds nuw %struct.cbuf, ptr %4, i32 0, i32 4
  %6 = load i32, ptr %5, align 4
  %7 = load ptr, ptr %3, align 8
  %8 = getelementptr inbounds nuw %struct.cbuf, ptr %7, i32 0, i32 2
  %9 = load i32, ptr %8, align 4
  %10 = icmp eq i32 %6, %9
  br i1 %10, label %11, label %12

11:                                               ; preds = %1
  store i32 0, ptr %2, align 4
  br label %23

12:                                               ; preds = %1
  %13 = load ptr, ptr %3, align 8
  %14 = getelementptr inbounds nuw %struct.cbuf, ptr %13, i32 0, i32 4
  %15 = load i32, ptr %14, align 4
  %16 = load ptr, ptr %3, align 8
  %17 = getelementptr inbounds nuw %struct.cbuf, ptr %16, i32 0, i32 5
  %18 = load i32, ptr %17, align 8
  %19 = sub nsw i32 %15, %18
  %20 = icmp sle i32 %19, 1000
  br i1 %20, label %21, label %22

21:                                               ; preds = %12
  store i32 0, ptr %2, align 4
  br label %23

22:                                               ; preds = %12
  store i32 0, ptr %2, align 4
  br label %23

23:                                               ; preds = %22, %21, %11
  %24 = load i32, ptr %2, align 4
  ret i32 %24
}

; Function Attrs: nounwind uwtable
define internal i32 @cbuf_dropper(ptr noundef %0, i32 noundef %1) #0 {
  %3 = alloca ptr, align 8
  %4 = alloca i32, align 4
  store ptr %0, ptr %3, align 8
  store i32 %1, ptr %4, align 4
  %5 = load i32, ptr %4, align 4
  %6 = load ptr, ptr %3, align 8
  %7 = getelementptr inbounds nuw %struct.cbuf, ptr %6, i32 0, i32 5
  %8 = load i32, ptr %7, align 8
  %9 = sub nsw i32 %8, %5
  store i32 %9, ptr %7, align 8
  %10 = load ptr, ptr %3, align 8
  %11 = getelementptr inbounds nuw %struct.cbuf, ptr %10, i32 0, i32 9
  %12 = load i32, ptr %11, align 8
  %13 = load i32, ptr %4, align 4
  %14 = add nsw i32 %12, %13
  %15 = load ptr, ptr %3, align 8
  %16 = getelementptr inbounds nuw %struct.cbuf, ptr %15, i32 0, i32 4
  %17 = load i32, ptr %16, align 4
  %18 = add nsw i32 %17, 1
  %19 = srem i32 %14, %18
  %20 = load ptr, ptr %3, align 8
  %21 = getelementptr inbounds nuw %struct.cbuf, ptr %20, i32 0, i32 9
  store i32 %19, ptr %21, align 8
  %22 = load ptr, ptr %3, align 8
  %23 = getelementptr inbounds nuw %struct.cbuf, ptr %22, i32 0, i32 4
  %24 = load i32, ptr %23, align 4
  %25 = load ptr, ptr %3, align 8
  %26 = getelementptr inbounds nuw %struct.cbuf, ptr %25, i32 0, i32 5
  %27 = load i32, ptr %26, align 8
  %28 = sub nsw i32 %24, %27
  %29 = icmp sgt i32 %28, 1000
  br i1 %29, label %30, label %41

30:                                               ; preds = %2
  %31 = load ptr, ptr %3, align 8
  %32 = getelementptr inbounds nuw %struct.cbuf, ptr %31, i32 0, i32 4
  %33 = load i32, ptr %32, align 4
  %34 = load ptr, ptr %3, align 8
  %35 = getelementptr inbounds nuw %struct.cbuf, ptr %34, i32 0, i32 2
  %36 = load i32, ptr %35, align 4
  %37 = icmp sgt i32 %33, %36
  br i1 %37, label %38, label %41

38:                                               ; preds = %30
  %39 = load ptr, ptr %3, align 8
  %40 = call i32 @cbuf_shrink(ptr noundef %39)
  br label %41

41:                                               ; preds = %38, %30, %2
  %42 = load i32, ptr %4, align 4
  ret i32 %42
}

; Function Attrs: nounwind uwtable
define dso_local i32 @cbuf_drop(ptr noundef %0, i32 noundef %1) #0 {
  %3 = alloca i32, align 4
  %4 = alloca ptr, align 8
  %5 = alloca i32, align 4
  %6 = alloca i32, align 4
  %7 = alloca i32, align 4
  store ptr %0, ptr %4, align 8
  store i32 %1, ptr %5, align 4
  %8 = load i32, ptr %5, align 4
  %9 = icmp slt i32 %8, -1
  br i1 %9, label %10, label %12

10:                                               ; preds = %2
  %11 = call ptr @__errno_location() #9
  store i32 22, ptr %11, align 4
  store i32 -1, ptr %3, align 4
  br label %68

12:                                               ; preds = %2
  %13 = load i32, ptr %5, align 4
  %14 = icmp eq i32 %13, 0
  br i1 %14, label %15, label %16

15:                                               ; preds = %12
  store i32 0, ptr %3, align 4
  br label %68

16:                                               ; preds = %12
  br label %17

17:                                               ; preds = %16
  call void @llvm.lifetime.start.p0(i64 4, ptr %6) #8
  %18 = load ptr, ptr %4, align 8
  %19 = getelementptr inbounds nuw %struct.cbuf, ptr %18, i32 0, i32 0
  %20 = call i32 @pthread_mutex_lock(ptr noundef %19) #8
  store i32 %20, ptr %6, align 4
  %21 = load i32, ptr %6, align 4
  %22 = icmp ne i32 %21, 0
  br i1 %22, label %23, label %26

23:                                               ; preds = %17
  %24 = load i32, ptr %6, align 4
  %25 = call ptr @__errno_location() #9
  store i32 %24, ptr %25, align 4
  call void (ptr, ...) @fatal_abort(ptr noundef @.str.2, ptr noundef @__func__.cbuf_drop) #10
  unreachable

26:                                               ; preds = %17
  call void @llvm.lifetime.end.p0(i64 4, ptr %6) #8
  br label %27

27:                                               ; preds = %26
  %28 = load i32, ptr %5, align 4
  %29 = icmp eq i32 %28, -1
  br i1 %29, label %30, label %34

30:                                               ; preds = %27
  %31 = load ptr, ptr %4, align 8
  %32 = getelementptr inbounds nuw %struct.cbuf, ptr %31, i32 0, i32 5
  %33 = load i32, ptr %32, align 8
  store i32 %33, ptr %5, align 4
  br label %48

34:                                               ; preds = %27
  %35 = load i32, ptr %5, align 4
  %36 = load ptr, ptr %4, align 8
  %37 = getelementptr inbounds nuw %struct.cbuf, ptr %36, i32 0, i32 5
  %38 = load i32, ptr %37, align 8
  %39 = icmp slt i32 %35, %38
  br i1 %39, label %40, label %42

40:                                               ; preds = %34
  %41 = load i32, ptr %5, align 4
  br label %46

42:                                               ; preds = %34
  %43 = load ptr, ptr %4, align 8
  %44 = getelementptr inbounds nuw %struct.cbuf, ptr %43, i32 0, i32 5
  %45 = load i32, ptr %44, align 8
  br label %46

46:                                               ; preds = %42, %40
  %47 = phi i32 [ %41, %40 ], [ %45, %42 ]
  store i32 %47, ptr %5, align 4
  br label %48

48:                                               ; preds = %46, %30
  %49 = load i32, ptr %5, align 4
  %50 = icmp sgt i32 %49, 0
  br i1 %50, label %51, label %55

51:                                               ; preds = %48
  %52 = load ptr, ptr %4, align 8
  %53 = load i32, ptr %5, align 4
  %54 = call i32 @cbuf_dropper(ptr noundef %52, i32 noundef %53)
  br label %55

55:                                               ; preds = %51, %48
  br label %56

56:                                               ; preds = %55
  call void @llvm.lifetime.start.p0(i64 4, ptr %7) #8
  %57 = load ptr, ptr %4, align 8
  %58 = getelementptr inbounds nuw %struct.cbuf, ptr %57, i32 0, i32 0
  %59 = call i32 @pthread_mutex_unlock(ptr noundef %58) #8
  store i32 %59, ptr %7, align 4
  %60 = load i32, ptr %7, align 4
  %61 = icmp ne i32 %60, 0
  br i1 %61, label %62, label %65

62:                                               ; preds = %56
  %63 = load i32, ptr %7, align 4
  %64 = call ptr @__errno_location() #9
  store i32 %63, ptr %64, align 4
  call void (ptr, ...) @fatal_abort(ptr noundef @.str.3, ptr noundef @__func__.cbuf_drop) #10
  unreachable

65:                                               ; preds = %56
  call void @llvm.lifetime.end.p0(i64 4, ptr %7) #8
  br label %66

66:                                               ; preds = %65
  %67 = load i32, ptr %5, align 4
  store i32 %67, ptr %3, align 4
  br label %68

68:                                               ; preds = %66, %15, %10
  %69 = load i32, ptr %3, align 4
  ret i32 %69
}