; Function Attrs: nounwind uwtable
define dso_local i32 @cbuf_drop(ptr noundef %0, i32 noundef %1) local_unnamed_addr #0 {
  %3 = icmp slt i32 %1, -1
  br i1 %3, label %4, label %6

4:                                                ; preds = %2
  %5 = tail call ptr @__errno_location() #14
  store i32 22, ptr %5, align 4
  br label %31

6:                                                ; preds = %2
  %7 = icmp eq i32 %1, 0
  br i1 %7, label %31, label %8

8:                                                ; preds = %6
  %9 = tail call i32 @pthread_mutex_lock(ptr noundef %0) #15
  %.not = icmp eq i32 %9, 0
  br i1 %.not, label %12, label %10

10:                                               ; preds = %8
  %11 = tail call ptr @__errno_location() #14
  store i32 %9, ptr %11, align 4
  tail call void (ptr, ...) @fatal_abort(ptr noundef nonnull @.str.2, ptr noundef nonnull @__func__.cbuf_drop) #16
  unreachable

12:                                               ; preds = %8
  %13 = icmp eq i32 %1, -1
  %14 = getelementptr inbounds nuw i8, ptr %0, i64 56
  %15 = load i32, ptr %14, align 8
  %. = tail call i32 @llvm.smin.i32(i32 %1, i32 %15)
  %.018 = select i1 %13, i32 %15, i32 %.
  %16 = icmp sgt i32 %.018, 0
  br i1 %16, label %17, label %27

17:                                               ; preds = %12
  %18 = getelementptr inbounds nuw i8, ptr %0, i64 56
  %19 = sub nsw i32 %15, %.018
  store i32 %19, ptr %18, align 8
  %20 = getelementptr inbounds nuw i8, ptr %0, i64 72
  %21 = load i32, ptr %20, align 8
  %22 = add nsw i32 %21, %.018
  %23 = getelementptr inbounds nuw i8, ptr %0, i64 52
  %24 = load i32, ptr %23, align 4
  %25 = add nsw i32 %24, 1
  %26 = srem i32 %22, %25
  store i32 %26, ptr %20, align 8
  br label %27

27:                                               ; preds = %12, %17
  %28 = tail call i32 @pthread_mutex_unlock(ptr noundef nonnull %0) #15
  %.not23 = icmp eq i32 %28, 0
  br i1 %.not23, label %31, label %29

29:                                               ; preds = %27
  %30 = tail call ptr @__errno_location() #14
  store i32 %28, ptr %30, align 4
  tail call void (ptr, ...) @fatal_abort(ptr noundef nonnull @.str.3, ptr noundef nonnull @__func__.cbuf_drop) #16
  unreachable

31:                                               ; preds = %27, %6, %4
  %.0 = phi i32 [ -1, %4 ], [ 0, %6 ], [ %.018, %27 ]
  ret i32 %.0
}